target datalayout = "e-m:e-p270:32:32-p271:32:32-p272:64:64-i64:64-i128:128-f80:128-n8:16:32:64-S128"
target triple = "x86_64-pc-linux-gnu"

%struct._address_type_t = type { i32, ptr, ptr, ptr, ptr, ptr, ptr, ptr, ptr, ptr }
%struct._address = type { i32, i32, ptr, ptr }

@type_list = internal global [45 x ptr] zeroinitializer, align 16
@.str.30 = private unnamed_addr constant [1 x i8] zeroinitializer, align 1
@.str.31 = private unnamed_addr constant [21 x i8] c"epan/address_types.c\00", align 1
@__func__.tvb_address_to_str = private unnamed_addr constant [19 x i8] c"tvb_address_to_str\00", align 1
@.str.32 = private unnamed_addr constant [31 x i8] c"assertion \22not reached\22 failed\00", align 1

; Function Attrs: null_pointer_is_valid sspstrong uwtable
define void @address_to_str_buf(ptr noundef %0, ptr noundef %1, i32 noundef %2) #3 {
  %4 = alloca ptr, align 8
  %5 = alloca ptr, align 8
  %6 = alloca i32, align 4
  %7 = alloca ptr, align 8
  %8 = alloca i32, align 4
  store ptr %0, ptr %4, align 8
  store ptr %1, ptr %5, align 8
  store i32 %2, ptr %6, align 4
  call void @llvm.lifetime.start.p0(i64 8, ptr %7) #12
  %9 = load ptr, ptr %5, align 8
  %10 = icmp ne ptr %9, null
  br i1 %10, label %11, label %14

11:                                               ; preds = %3
  %12 = load i32, ptr %6, align 4
  %13 = icmp ne i32 %12, 0
  br i1 %13, label %15, label %14

14:                                               ; preds = %11, %3
  store i32 1, ptr %8, align 4
  br label %43

15:                                               ; preds = %11
  br label %16

16:                                               ; preds = %15
  br label %17

17:                                               ; preds = %16
  br label %18

18:                                               ; preds = %17
  %19 = load ptr, ptr %4, align 8
  %20 = getelementptr inbounds nuw %struct._address, ptr %19, i32 0, i32 0
  %21 = load i32, ptr %20, align 8
  %22 = sext i32 %21 to i64
  %23 = getelementptr [45 x ptr], ptr @type_list, i64 0, i64 %22
  %24 = load ptr, ptr %23, align 8
  store ptr %24, ptr %7, align 8
  %25 = load ptr, ptr %7, align 8
  %26 = icmp eq ptr %25, null
  br i1 %26, label %32, label %27

27:                                               ; preds = %18
  %28 = load ptr, ptr %7, align 8
  %29 = getelementptr inbounds nuw %struct._address_type_t, ptr %28, i32 0, i32 3
  %30 = load ptr, ptr %29, align 8
  %31 = icmp eq ptr %30, null
  br i1 %31, label %32, label %35

32:                                               ; preds = %27, %18
  %33 = load ptr, ptr %5, align 8
  %34 = getelementptr i8, ptr %33, i64 0
  store i8 0, ptr %34, align 1
  store i32 1, ptr %8, align 4
  br label %43

35:                                               ; preds = %27
  %36 = load ptr, ptr %7, align 8
  %37 = getelementptr inbounds nuw %struct._address_type_t, ptr %36, i32 0, i32 3
  %38 = load ptr, ptr %37, align 8
  %39 = load ptr, ptr %4, align 8
  %40 = load ptr, ptr %5, align 8
  %41 = load i32, ptr %6, align 4
  %42 = call i32 %38(ptr noundef %39, ptr noundef %40, i32 noundef %41)
  store i32 0, ptr %8, align 4
  br label %43

43:                                               ; preds = %35, %32, %14
  call void @llvm.lifetime.end.p0(i64 8, ptr %7) #12
  %44 = load i32, ptr %8, align 4
  switch i32 %44, label %46 [
    i32 0, label %45
    i32 1, label %45
  ]

45:                                               ; preds = %43, %43
  ret void

46:                                               ; preds = %43
  unreachable
}

; Function Attrs: null_pointer_is_valid sspstrong uwtable
define internal i32 @address_type_get_length(ptr noundef %0) #3 {
  %2 = alloca i32, align 4
  %3 = alloca ptr, align 8
  %4 = alloca ptr, align 8
  %5 = alloca i32, align 4
  store ptr %0, ptr %3, align 8
  call void @llvm.lifetime.start.p0(i64 8, ptr %4) #12
  br label %6

6:                                                ; preds = %1
  br label %7

7:                                                ; preds = %6
  br label %8

8:                                                ; preds = %7
  %9 = load ptr, ptr %3, align 8
  %10 = getelementptr inbounds nuw %struct._address, ptr %9, i32 0, i32 0
  %11 = load i32, ptr %10, align 8
  %12 = sext i32 %11 to i64
  %13 = getelementptr [45 x ptr], ptr @type_list, i64 0, i64 %12
  %14 = load ptr, ptr %13, align 8
  store ptr %14, ptr %4, align 8
  %15 = load ptr, ptr %4, align 8
  %16 = icmp eq ptr %15, null
  br i1 %16, label %17, label %18

17:                                               ; preds = %8
  store i32 0, ptr %2, align 4
  store i32 1, ptr %5, align 4
  br label %24

18:                                               ; preds = %8
  %19 = load ptr, ptr %4, align 8
  %20 = getelementptr inbounds nuw %struct._address_type_t, ptr %19, i32 0, i32 4
  %21 = load ptr, ptr %20, align 8
  %22 = load ptr, ptr %3, align 8
  %23 = call i32 %21(ptr noundef %22)
  store i32 %23, ptr %2, align 4
  store i32 1, ptr %5, align 4
  br label %24

24:                                               ; preds = %18, %17
  call void @llvm.lifetime.end.p0(i64 8, ptr %4) #12
  %25 = load i32, ptr %2, align 4
  ret i32 %25
}

; Function Attrs: inlinehint nounwind null_pointer_is_valid sspstrong uwtable
define internal void @set_address(ptr noundef %0, i32 noundef %1, i32 noundef %2, ptr noundef %3) #10 {
  %5 = alloca ptr, align 8
  %6 = alloca i32, align 4
  %7 = alloca i32, align 4
  %8 = alloca ptr, align 8
  store ptr %0, ptr %5, align 8
  store i32 %1, ptr %6, align 4
  store i32 %2, ptr %7, align 4
  store ptr %3, ptr %8, align 8
  %9 = load i32, ptr %7, align 4
  %10 = icmp eq i32 %9, 0
  br i1 %10, label %11, label %14

11:                                               ; preds = %4
  br label %12

12:                                               ; preds = %11
  br label %13

13:                                               ; preds = %12
  br label %19

14:                                               ; preds = %4
  br label %15

15:                                               ; preds = %14
  br label %16

16:                                               ; preds = %15
  br label %17

17:                                               ; preds = %16
  br label %18

18:                                               ; preds = %17
  br label %19

19:                                               ; preds = %18, %13
  %20 = load i32, ptr %6, align 4
  %21 = load ptr, ptr %5, align 8
  %22 = getelementptr inbounds nuw %struct._address, ptr %21, i32 0, i32 0
  store i32 %20, ptr %22, align 8
  %23 = load i32, ptr %7, align 4
  %24 = load ptr, ptr %5, align 8
  %25 = getelementptr inbounds nuw %struct._address, ptr %24, i32 0, i32 1
  store i32 %23, ptr %25, align 4
  %26 = load ptr, ptr %8, align 8
  %27 = load ptr, ptr %5, align 8
  %28 = getelementptr inbounds nuw %struct._address, ptr %27, i32 0, i32 2
  store ptr %26, ptr %28, align 8
  %29 = load ptr, ptr %5, align 8
  %30 = getelementptr inbounds nuw %struct._address, ptr %29, i32 0, i32 3
  store ptr null, ptr %30, align 8
  ret void
}

; Function Attrs: null_pointer_is_valid sspstrong uwtable
define ptr @address_to_str(ptr noundef %0, ptr noundef %1) #3 {
  %3 = alloca ptr, align 8
  %4 = alloca ptr, align 8
  %5 = alloca ptr, align 8
  %6 = alloca i32, align 4
  store ptr %0, ptr %3, align 8
  store ptr %1, ptr %4, align 8
  call void @llvm.lifetime.start.p0(i64 8, ptr %5) #12
  call void @llvm.lifetime.start.p0(i64 4, ptr %6) #12
  %7 = load ptr, ptr %4, align 8
  %8 = call i32 @address_type_get_length(ptr noundef %7)
  store i32 %8, ptr %6, align 4
  %9 = load i32, ptr %6, align 4
  %10 = icmp sle i32 %9, 0
  br i1 %10, label %11, label %12

11:                                               ; preds = %2
  store i32 256, ptr %6, align 4
  br label %12

12:                                               ; preds = %11, %2
  %13 = load ptr, ptr %3, align 8
  %14 = load i32, ptr %6, align 4
  %15 = sext i32 %14 to i64
  %16 = call noalias ptr @wmem_alloc(ptr noundef %13, i64 noundef %15) #14
  store ptr %16, ptr %5, align 8
  %17 = load ptr, ptr %4, align 8
  %18 = load ptr, ptr %5, align 8
  %19 = load i32, ptr %6, align 4
  call void @address_to_str_buf(ptr noundef %17, ptr noundef %18, i32 noundef %19)
  %20 = load ptr, ptr %5, align 8
  call void @llvm.lifetime.end.p0(i64 4, ptr %6) #12
  call void @llvm.lifetime.end.p0(i64 8, ptr %5) #12
  ret ptr %20
}

; Function Attrs: inlinehint null_pointer_is_valid sspstrong uwtable
define internal void @set_address_tvb(ptr noundef %0, i32 noundef %1, i32 noundef %2, ptr noundef %3, i32 noundef %4) #8 {
  %6 = alloca ptr, align 8
  %7 = alloca i32, align 4
  %8 = alloca i32, align 4
  %9 = alloca ptr, align 8
  %10 = alloca i32, align 4
  %11 = alloca ptr, align 8
  store ptr %0, ptr %6, align 8
  store i32 %1, ptr %7, align 4
  store i32 %2, ptr %8, align 4
  store ptr %3, ptr %9, align 8
  store i32 %4, ptr %10, align 4
  call void @llvm.lifetime.start.p0(i64 8, ptr %11) #12
  %12 = load i32, ptr %8, align 4
  %13 = icmp ne i32 %12, 0
  br i1 %13, label %14, label %22

14:                                               ; preds = %5
  br label %15

15:                                               ; preds = %14
  br label %16

16:                                               ; preds = %15
  br label %17

17:                                               ; preds = %16
  %18 = load ptr, ptr %9, align 8
  %19 = load i32, ptr %10, align 4
  %20 = load i32, ptr %8, align 4
  %21 = call ptr @tvb_get_ptr(ptr noundef %18, i32 noundef %19, i32 noundef %20)
  store ptr %21, ptr %11, align 8
  br label %23

22:                                               ; preds = %5
  store ptr null, ptr %11, align 8
  br label %23

23:                                               ; preds = %22, %17
  %24 = load ptr, ptr %6, align 8
  %25 = load i32, ptr %7, align 4
  %26 = load i32, ptr %8, align 4
  %27 = load ptr, ptr %11, align 8
  call void @set_address(ptr noundef %24, i32 noundef %25, i32 noundef %26, ptr noundef %27)
  call void @llvm.lifetime.end.p0(i64 8, ptr %11) #12
  ret void
}

; Function Attrs: null_pointer_is_valid sspstrong uwtable
define ptr @tvb_address_to_str(ptr noundef %0, ptr noundef %1, i32 noundef %2, i32 noundef %3) #3 {
  %5 = alloca ptr, align 8
  %6 = alloca ptr, align 8
  %7 = alloca ptr, align 8
  %8 = alloca i32, align 4
  %9 = alloca i32, align 4
  %10 = alloca %struct._address, align 8
  %11 = alloca ptr, align 8
  %12 = alloca i32, align 4
  store ptr %0, ptr %6, align 8
  store ptr %1, ptr %7, align 8
  store i32 %2, ptr %8, align 4
  store i32 %3, ptr %9, align 4
  call void @llvm.lifetime.start.p0(i64 24, ptr %10) #12
  call void @llvm.lifetime.start.p0(i64 8, ptr %11) #12
  br label %13

13:                                               ; preds = %4
  br label %14

14:                                               ; preds = %13
  br label %15

15:                                               ; preds = %14
  %16 = load i32, ptr %8, align 4
  %17 = sext i32 %16 to i64
  %18 = getelementptr [45 x ptr], ptr @type_list, i64 0, i64 %17
  %19 = load ptr, ptr %18, align 8
  store ptr %19, ptr %11, align 8
  %20 = load ptr, ptr %11, align 8
  %21 = icmp eq ptr %20, null
  br i1 %21, label %22, label %23

22:                                               ; preds = %15
  store ptr null, ptr %5, align 8
  store i32 1, ptr %12, align 4
  br label %39

23:                                               ; preds = %15
  %24 = load ptr, ptr %11, align 8
  %25 = getelementptr inbounds nuw %struct._address_type_t, ptr %24, i32 0, i32 7
  %26 = load ptr, ptr %25, align 8
  %27 = icmp eq ptr %26, null
  br i1 %27, label %28, label %29

28:                                               ; preds = %23
  call void (ptr, i32, ptr, i64, ptr, ptr, ...) @ws_log_fatal_full(ptr noundef @.str.30, i32 noundef 7, ptr noundef @.str.31, i64 noundef 1122, ptr noundef @__func__.tvb_address_to_str, ptr noundef @.str.32) #15
  unreachable

29:                                               ; preds = %23
  %30 = load i32, ptr %8, align 4
  %31 = load ptr, ptr %11, align 8
  %32 = getelementptr inbounds nuw %struct._address_type_t, ptr %31, i32 0, i32 7
  %33 = load ptr, ptr %32, align 8
  %34 = call i32 %33()
  %35 = load ptr, ptr %7, align 8
  %36 = load i32, ptr %9, align 4
  call void @set_address_tvb(ptr noundef %10, i32 noundef %30, i32 noundef %34, ptr noundef %35, i32 noundef %36)
  %37 = load ptr, ptr %6, align 8
  %38 = call ptr @address_to_str(ptr noundef %37, ptr noundef %10)
  store ptr %38, ptr %5, align 8
  store i32 1, ptr %12, align 4
  br label %39

39:                                               ; preds = %29, %22
  call void @llvm.lifetime.end.p0(i64 8, ptr %11) #12
  call void @llvm.lifetime.end.p0(i64 24, ptr %10) #12
  %40 = load ptr, ptr %5, align 8
  ret ptr %40
}