; Function Attrs: null_pointer_is_valid sspstrong uwtable
define ptr @tvb_address_to_str(ptr noundef %0, ptr noundef %1, i32 noundef %2, i32 noundef %3) local_unnamed_addr #6 {
  %5 = alloca %struct._address, align 8
  call void @llvm.lifetime.start.p0(i64 24, ptr nonnull %5) #18
  %6 = sext i32 %2 to i64
  %7 = getelementptr [45 x ptr], ptr @type_list, i64 0, i64 %6
  %8 = load ptr, ptr %7, align 8
  %9 = icmp eq ptr %8, null
  br i1 %9, label %address_to_str.exit, label %10

10:                                               ; preds = %4
  %11 = getelementptr inbounds nuw i8, ptr %8, i64 56
  %12 = load ptr, ptr %11, align 8
  %13 = icmp eq ptr %12, null
  br i1 %13, label %14, label %15

14:                                               ; preds = %10
  tail call void (ptr, i32, ptr, i64, ptr, ptr, ...) @ws_log_fatal_full(ptr noundef nonnull @.str.30, i32 noundef 7, ptr noundef nonnull @.str.31, i64 noundef 1122, ptr noundef nonnull @__func__.tvb_address_to_str, ptr noundef nonnull @.str.32) #20
  unreachable

15:                                               ; preds = %10
  %16 = tail call i32 %12()
  %.not.i = icmp eq i32 %16, 0
  br i1 %.not.i, label %set_address_tvb.exit, label %.split.i

.split.i:                                         ; preds = %15
  %17 = tail call ptr @tvb_get_ptr(ptr noundef %1, i32 noundef %3, i32 noundef %16)
  br label %set_address_tvb.exit

set_address_tvb.exit:                             ; preds = %15, %.split.i
  %.sink.i = phi ptr [ %17, %.split.i ], [ null, %15 ]
  store i32 %2, ptr %5, align 8
  %18 = getelementptr inbounds nuw i8, ptr %5, i64 4
  store i32 %16, ptr %18, align 4
  %19 = getelementptr inbounds nuw i8, ptr %5, i64 8
  store ptr %.sink.i, ptr %19, align 8
  %20 = getelementptr inbounds nuw i8, ptr %5, i64 16
  store ptr null, ptr %20, align 8
  %21 = load ptr, ptr %7, align 8
  %22 = icmp eq ptr %21, null
  br i1 %22, label %address_type_get_length.exit.thread.i, label %address_type_get_length.exit.i

address_type_get_length.exit.i:                   ; preds = %set_address_tvb.exit
  %23 = getelementptr inbounds nuw i8, ptr %21, i64 32
  %24 = load ptr, ptr %23, align 8
  %25 = call i32 %24(ptr noundef nonnull %5)
  %.fr.i = freeze i32 %25
  %26 = icmp slt i32 %.fr.i, 1
  br i1 %26, label %address_type_get_length.exit.thread.i, label %27

address_type_get_length.exit.thread.i:            ; preds = %address_type_get_length.exit.i, %set_address_tvb.exit
  br label %27

27:                                               ; preds = %address_type_get_length.exit.thread.i, %address_type_get_length.exit.i
  %28 = phi i32 [ 256, %address_type_get_length.exit.thread.i ], [ %.fr.i, %address_type_get_length.exit.i ]
  %29 = zext nneg i32 %28 to i64
  %30 = call noalias ptr @wmem_alloc(ptr noundef %0, i64 noundef %29) #19
  %.not.i10 = icmp eq ptr %30, null
  br i1 %.not.i10, label %address_to_str.exit, label %31

31:                                               ; preds = %27
  %32 = load i32, ptr %5, align 8
  %33 = sext i32 %32 to i64
  %34 = getelementptr [45 x ptr], ptr @type_list, i64 0, i64 %33
  %35 = load ptr, ptr %34, align 8
  %36 = icmp eq ptr %35, null
  br i1 %36, label %41, label %37

37:                                               ; preds = %31
  %38 = getelementptr inbounds nuw i8, ptr %35, i64 24
  %39 = load ptr, ptr %38, align 8
  %40 = icmp eq ptr %39, null
  br i1 %40, label %41, label %42

41:                                               ; preds = %37, %31
  store i8 0, ptr %30, align 1
  br label %address_to_str.exit

42:                                               ; preds = %37
  %43 = call i32 %39(ptr noundef nonnull %5, ptr noundef nonnull %30, i32 noundef %28)
  br label %address_to_str.exit

address_to_str.exit:                              ; preds = %42, %41, %27, %4
  %.0 = phi ptr [ null, %4 ], [ null, %27 ], [ %30, %41 ], [ %30, %42 ]
  call void @llvm.lifetime.end.p0(i64 24, ptr nonnull %5) #18
  ret ptr %.0
}